target datalayout = "e-m:e-p270:32:32-p271:32:32-p272:64:64-i64:64-i128:128-f80:128-n8:16:32:64-S128"
target triple = "x86_64-pc-linux-gnu"

%struct.AVFormatContext = type { ptr, ptr, ptr, ptr, ptr, i32, i32, ptr, i32, ptr, i32, ptr, ptr, i64, i64, i64, i32, i32, i32, i64, i64, ptr, i32, i32, ptr, i32, i32, i32, i32, ptr, i64, i32, i32, %struct.AVIOInterruptCB, i32, i32, i32, i32, i64, i32, i32, i32, i32, i32, i32, i32, i32, i32, i32, i32, i32, i64, i32, i32, i32, i32, i32, ptr, ptr, ptr, ptr, i32, ptr, ptr, ptr, ptr, i32, ptr, ptr, i64, ptr, ptr, ptr, i64 }
%struct.AVIOInterruptCB = type { ptr, ptr }
%struct.SmoothStreamingContext = type { ptr, i32, i32, i32, i32, i32, ptr, i32, i32, i32 }
%struct.OutputStream = type { ptr, ptr, ptr, ptr, i64, i64, i64, i32, ptr, i32, i32, i32, ptr, ptr, ptr, i32, i32, [1024 x i8], [32768 x i8] }
%struct.AVStream = type { ptr, i32, i32, ptr, ptr, %struct.AVRational, i64, i64, i64, i32, i32, %struct.AVRational, ptr, %struct.AVRational, %struct.AVPacket, i32, %struct.AVRational, i32 }
%struct.AVPacket = type { ptr, i64, i64, ptr, i32, i32, i32, ptr, i32, i64, i64, ptr, ptr, %struct.AVRational }
%struct.AVRational = type { i32, i32 }
%struct.AVCodecParameters = type { i32, i32, i32, ptr, i32, ptr, i32, i32, i64, i32, i32, i32, i32, i32, i32, %struct.AVRational, %struct.AVRational, i32, i32, i32, i32, i32, i32, i32, %struct.AVChannelLayout, i32, i32, i32, i32, i32, i32 }
%struct.AVChannelLayout = type { i32, i32, %union.anon.0, ptr }
%union.anon.0 = type { i64 }
%struct.FFStream = type { %struct.AVStream, ptr, i32, ptr, i32, ptr, i32, %struct.anon, i32, i32, %struct.FFFrac, ptr, ptr, i32, i32, i64, i64, i32, i32, i32, i64, i64, i64, i32, i64, i64, i64, i32, i32, [17 x i64], [17 x i8], [17 x i64], i64, i8, i8, %struct.AVRational, %struct.AVProbeData, ptr, i64, i32, i32, i32, ptr, i32, i32, i64, i64, ptr, %struct.AVRational }
%struct.anon = type { ptr, i32 }
%struct.FFFrac = type { i64, i64, i64 }
%struct.AVProbeData = type { ptr, ptr, i32, ptr }

; Function Attrs: alwaysinline nounwind uwtable
define internal ptr @ffstream(ptr noundef %0) #7 {
  %2 = alloca ptr, align 8
  store ptr %0, ptr %2, align 8, !tbaa !38
  %3 = load ptr, ptr %2, align 8, !tbaa !38
  ret ptr %3
}

; Function Attrs: nounwind uwtable
define internal i32 @ism_write_packet(ptr noundef %0, ptr noundef %1) #0 {
  %3 = alloca i32, align 4
  %4 = alloca ptr, align 8
  %5 = alloca ptr, align 8
  %6 = alloca ptr, align 8
  %7 = alloca ptr, align 8
  %8 = alloca ptr, align 8
  %9 = alloca ptr, align 8
  %10 = alloca i64, align 8
  %11 = alloca i32, align 4
  %12 = alloca %struct.AVRational, align 4
  %13 = alloca i32, align 4
  store ptr %0, ptr %4, align 8, !tbaa !4
  store ptr %1, ptr %5, align 8, !tbaa !72
  call void @llvm.lifetime.start.p0(i64 8, ptr %6) #9
  %14 = load ptr, ptr %4, align 8, !tbaa !4
  %15 = getelementptr inbounds nuw %struct.AVFormatContext, ptr %14, i32 0, i32 3
  %16 = load ptr, ptr %15, align 8, !tbaa !9
  store ptr %16, ptr %6, align 8, !tbaa !26
  call void @llvm.lifetime.start.p0(i64 8, ptr %7) #9
  %17 = load ptr, ptr %4, align 8, !tbaa !4
  %18 = getelementptr inbounds nuw %struct.AVFormatContext, ptr %17, i32 0, i32 7
  %19 = load ptr, ptr %18, align 8, !tbaa !37
  %20 = load ptr, ptr %5, align 8, !tbaa !72
  %21 = getelementptr inbounds nuw %struct.AVPacket, ptr %20, i32 0, i32 5
  %22 = load i32, ptr %21, align 4, !tbaa !74
  %23 = sext i32 %22 to i64
  %24 = getelementptr inbounds ptr, ptr %19, i64 %23
  %25 = load ptr, ptr %24, align 8, !tbaa !38
  store ptr %25, ptr %7, align 8, !tbaa !38
  call void @llvm.lifetime.start.p0(i64 8, ptr %8) #9
  %26 = load ptr, ptr %7, align 8, !tbaa !38
  %27 = call ptr @ffstream(ptr noundef %26)
  store ptr %27, ptr %8, align 8, !tbaa !75
  call void @llvm.lifetime.start.p0(i64 8, ptr %9) #9
  %28 = load ptr, ptr %6, align 8, !tbaa !26
  %29 = getelementptr inbounds nuw %struct.SmoothStreamingContext, ptr %28, i32 0, i32 6
  %30 = load ptr, ptr %29, align 8, !tbaa !32
  %31 = load ptr, ptr %5, align 8, !tbaa !72
  %32 = getelementptr inbounds nuw %struct.AVPacket, ptr %31, i32 0, i32 5
  %33 = load i32, ptr %32, align 4, !tbaa !74
  %34 = sext i32 %33 to i64
  %35 = getelementptr inbounds %struct.OutputStream, ptr %30, i64 %34
  store ptr %35, ptr %9, align 8, !tbaa !35
  call void @llvm.lifetime.start.p0(i64 8, ptr %10) #9
  %36 = load ptr, ptr %6, align 8, !tbaa !26
  %37 = getelementptr inbounds nuw %struct.SmoothStreamingContext, ptr %36, i32 0, i32 9
  %38 = load i32, ptr %37, align 8, !tbaa !77
  %39 = add nsw i32 %38, 1
  %40 = sext i32 %39 to i64
  %41 = load ptr, ptr %6, align 8, !tbaa !26
  %42 = getelementptr inbounds nuw %struct.SmoothStreamingContext, ptr %41, i32 0, i32 4
  %43 = load i32, ptr %42, align 4, !tbaa !71
  %44 = sext i32 %43 to i64
  %45 = mul nsw i64 %40, %44
  store i64 %45, ptr %10, align 8, !tbaa !78
  call void @llvm.lifetime.start.p0(i64 4, ptr %11) #9
  %46 = load ptr, ptr %8, align 8, !tbaa !75
  %47 = getelementptr inbounds nuw %struct.FFStream, ptr %46, i32 0, i32 45
  %48 = load i64, ptr %47, align 8, !tbaa !79
  %49 = icmp eq i64 %48, -9223372036854775808
  br i1 %49, label %50, label %56

50:                                               ; preds = %2
  %51 = load ptr, ptr %5, align 8, !tbaa !72
  %52 = getelementptr inbounds nuw %struct.AVPacket, ptr %51, i32 0, i32 2
  %53 = load i64, ptr %52, align 8, !tbaa !91
  %54 = load ptr, ptr %8, align 8, !tbaa !75
  %55 = getelementptr inbounds nuw %struct.FFStream, ptr %54, i32 0, i32 45
  store i64 %53, ptr %55, align 8, !tbaa !79
  br label %56

56:                                               ; preds = %50, %2
  %57 = load ptr, ptr %6, align 8, !tbaa !26
  %58 = getelementptr inbounds nuw %struct.SmoothStreamingContext, ptr %57, i32 0, i32 7
  %59 = load i32, ptr %58, align 8, !tbaa !61
  %60 = icmp ne i32 %59, 0
  br i1 %60, label %61, label %68

61:                                               ; preds = %56
  %62 = load ptr, ptr %7, align 8, !tbaa !38
  %63 = getelementptr inbounds nuw %struct.AVStream, ptr %62, i32 0, i32 3
  %64 = load ptr, ptr %63, align 8, !tbaa !40
  %65 = getelementptr inbounds nuw %struct.AVCodecParameters, ptr %64, i32 0, i32 0
  %66 = load i32, ptr %65, align 8, !tbaa !60
  %67 = icmp eq i32 %66, 0
  br i1 %67, label %68, label %107

68:                                               ; preds = %61, %56
  %69 = load ptr, ptr %5, align 8, !tbaa !72
  %70 = getelementptr inbounds nuw %struct.AVPacket, ptr %69, i32 0, i32 2
  %71 = load i64, ptr %70, align 8, !tbaa !91
  %72 = load ptr, ptr %8, align 8, !tbaa !75
  %73 = getelementptr inbounds nuw %struct.FFStream, ptr %72, i32 0, i32 45
  %74 = load i64, ptr %73, align 8, !tbaa !79
  %75 = sub nsw i64 %71, %74
  %76 = load ptr, ptr %7, align 8, !tbaa !38
  %77 = getelementptr inbounds nuw %struct.AVStream, ptr %76, i32 0, i32 5
  %78 = load i64, ptr %10, align 8, !tbaa !78
  %79 = getelementptr inbounds nuw %struct.AVRational, ptr %12, i32 0, i32 0
  store i32 1, ptr %79, align 4, !tbaa !92
  %80 = getelementptr inbounds nuw %struct.AVRational, ptr %12, i32 0, i32 1
  store i32 1000000, ptr %80, align 4, !tbaa !93
  %81 = load i64, ptr %77, align 8
  %82 = load i64, ptr %12, align 4
  %83 = call i32 @av_compare_ts(i64 noundef %75, i64 %81, i64 noundef %78, i64 %82)
  %84 = icmp sge i32 %83, 0
  br i1 %84, label %85, label %107

85:                                               ; preds = %68
  %86 = load ptr, ptr %5, align 8, !tbaa !72
  %87 = getelementptr inbounds nuw %struct.AVPacket, ptr %86, i32 0, i32 6
  %88 = load i32, ptr %87, align 8, !tbaa !94
  %89 = and i32 %88, 1
  %90 = icmp ne i32 %89, 0
  br i1 %90, label %91, label %107

91:                                               ; preds = %85
  %92 = load ptr, ptr %9, align 8, !tbaa !35
  %93 = getelementptr inbounds nuw %struct.OutputStream, ptr %92, i32 0, i32 7
  %94 = load i32, ptr %93, align 8, !tbaa !95
  %95 = icmp ne i32 %94, 0
  br i1 %95, label %96, label %107

96:                                               ; preds = %91
  %97 = load ptr, ptr %4, align 8, !tbaa !4
  %98 = call i32 @ism_flush(ptr noundef %97, i32 noundef 0)
  store i32 %98, ptr %11, align 4, !tbaa !28
  %99 = icmp slt i32 %98, 0
  br i1 %99, label %100, label %102

100:                                              ; preds = %96
  %101 = load i32, ptr %11, align 4, !tbaa !28
  store i32 %101, ptr %3, align 4
  store i32 1, ptr %13, align 4
  br label %118

102:                                              ; preds = %96
  %103 = load ptr, ptr %6, align 8, !tbaa !26
  %104 = getelementptr inbounds nuw %struct.SmoothStreamingContext, ptr %103, i32 0, i32 9
  %105 = load i32, ptr %104, align 8, !tbaa !77
  %106 = add nsw i32 %105, 1
  store i32 %106, ptr %104, align 8, !tbaa !77
  br label %107

107:                                              ; preds = %102, %91, %85, %68, %61
  %108 = load ptr, ptr %9, align 8, !tbaa !35
  %109 = getelementptr inbounds nuw %struct.OutputStream, ptr %108, i32 0, i32 7
  %110 = load i32, ptr %109, align 8, !tbaa !95
  %111 = add nsw i32 %110, 1
  store i32 %111, ptr %109, align 8, !tbaa !95
  %112 = load ptr, ptr %9, align 8, !tbaa !35
  %113 = getelementptr inbounds nuw %struct.OutputStream, ptr %112, i32 0, i32 0
  %114 = load ptr, ptr %113, align 8, !tbaa !50
  %115 = load ptr, ptr %5, align 8, !tbaa !72
  %116 = load ptr, ptr %4, align 8, !tbaa !4
  %117 = call i32 @ff_write_chained(ptr noundef %114, i32 noundef 0, ptr noundef %115, ptr noundef %116, i32 noundef 0)
  store i32 %117, ptr %3, align 4
  store i32 1, ptr %13, align 4
  br label %118

118:                                              ; preds = %107, %100
  call void @llvm.lifetime.end.p0(i64 4, ptr %11) #9
  call void @llvm.lifetime.end.p0(i64 8, ptr %10) #9
  call void @llvm.lifetime.end.p0(i64 8, ptr %9) #9
  call void @llvm.lifetime.end.p0(i64 8, ptr %8) #9
  call void @llvm.lifetime.end.p0(i64 8, ptr %7) #9
  call void @llvm.lifetime.end.p0(i64 8, ptr %6) #9
  %119 = load i32, ptr %3, align 4
  ret i32 %119
}