; Function Attrs: nounwind uwtable
define internal i32 @ism_write_packet(ptr noundef %0, ptr noundef %1) #0 {
  %3 = getelementptr inbounds nuw i8, ptr %0, i64 24
  %4 = load ptr, ptr %3, align 8, !tbaa !4
  %5 = getelementptr inbounds nuw i8, ptr %0, i64 48
  %6 = load ptr, ptr %5, align 8, !tbaa !31
  %7 = getelementptr inbounds nuw i8, ptr %1, i64 36
  %8 = load i32, ptr %7, align 4, !tbaa !72
  %9 = sext i32 %8 to i64
  %10 = getelementptr inbounds ptr, ptr %6, i64 %9
  %11 = load ptr, ptr %10, align 8, !tbaa !32
  %12 = getelementptr inbounds nuw i8, ptr %4, i64 32
  %13 = load ptr, ptr %12, align 8, !tbaa !27
  %14 = getelementptr inbounds %struct.OutputStream, ptr %13, i64 %9
  %15 = getelementptr inbounds nuw i8, ptr %4, i64 48
  %16 = load i32, ptr %15, align 8, !tbaa !73
  %17 = add nsw i32 %16, 1
  %18 = sext i32 %17 to i64
  %19 = getelementptr inbounds nuw i8, ptr %4, i64 20
  %20 = load i32, ptr %19, align 4, !tbaa !71
  %21 = sext i32 %20 to i64
  %22 = mul nsw i64 %18, %21
  %23 = getelementptr inbounds nuw i8, ptr %11, i64 832
  %24 = load i64, ptr %23, align 8, !tbaa !74
  %25 = icmp eq i64 %24, -9223372036854775808
  br i1 %25, label %26, label %29

26:                                               ; preds = %2
  %27 = getelementptr inbounds nuw i8, ptr %1, i64 16
  %28 = load i64, ptr %27, align 8, !tbaa !86
  store i64 %28, ptr %23, align 8, !tbaa !74
  br label %29

29:                                               ; preds = %26, %2
  %30 = phi i64 [ %28, %26 ], [ %24, %2 ]
  %31 = getelementptr inbounds nuw i8, ptr %4, i64 40
  %32 = load i32, ptr %31, align 8, !tbaa !55
  %.not = icmp eq i32 %32, 0
  br i1 %.not, label %38, label %33

33:                                               ; preds = %29
  %34 = getelementptr inbounds nuw i8, ptr %11, i64 16
  %35 = load ptr, ptr %34, align 8, !tbaa !34
  %36 = load i32, ptr %35, align 8, !tbaa !54
  %37 = icmp eq i32 %36, 0
  br i1 %37, label %38, label %59

38:                                               ; preds = %33, %29
  %39 = getelementptr inbounds nuw i8, ptr %1, i64 16
  %40 = load i64, ptr %39, align 8, !tbaa !86
  %41 = sub nsw i64 %40, %30
  %42 = getelementptr inbounds nuw i8, ptr %11, i64 32
  %43 = load i64, ptr %42, align 8
  %44 = tail call i32 @av_compare_ts(i64 noundef %41, i64 %43, i64 noundef %22, i64 4294967296000001) #8
  %45 = icmp sgt i32 %44, -1
  br i1 %45, label %46, label %59

46:                                               ; preds = %38
  %47 = getelementptr inbounds nuw i8, ptr %1, i64 40
  %48 = load i32, ptr %47, align 8, !tbaa !87
  %49 = and i32 %48, 1
  %.not27 = icmp eq i32 %49, 0
  br i1 %.not27, label %59, label %50

50:                                               ; preds = %46
  %51 = getelementptr inbounds nuw i8, ptr %14, i64 56
  %52 = load i32, ptr %51, align 8, !tbaa !88
  %.not28 = icmp eq i32 %52, 0
  br i1 %.not28, label %59, label %53

53:                                               ; preds = %50
  %54 = tail call fastcc i32 @ism_flush(ptr noundef nonnull %0, i32 noundef 0)
  %55 = icmp slt i32 %54, 0
  br i1 %55, label %65, label %56

56:                                               ; preds = %53
  %57 = load i32, ptr %15, align 8, !tbaa !73
  %58 = add nsw i32 %57, 1
  store i32 %58, ptr %15, align 8, !tbaa !73
  br label %59

59:                                               ; preds = %56, %50, %46, %38, %33
  %60 = getelementptr inbounds nuw i8, ptr %14, i64 56
  %61 = load i32, ptr %60, align 8, !tbaa !88
  %62 = add nsw i32 %61, 1
  store i32 %62, ptr %60, align 8, !tbaa !88
  %63 = load ptr, ptr %14, align 8, !tbaa !44
  %64 = tail call i32 @ff_write_chained(ptr noundef %63, i32 noundef 0, ptr noundef nonnull %1, ptr noundef nonnull %0, i32 noundef 0) #8
  br label %65

65:                                               ; preds = %53, %59
  %.0 = phi i32 [ %64, %59 ], [ %54, %53 ]
  ret i32 %.0
}